
led_test.elf:     file format elf32-avr

Sections:
Idx Name          Size      VMA       LMA       File off  Algn
  0 .data         00000000  00800100  00800100  00000156  2**0
                  CONTENTS, ALLOC, LOAD, DATA
  1 .text         00000102  00000000  00000000  00000054  2**1
                  CONTENTS, ALLOC, LOAD, READONLY, CODE
  2 .comment      00000030  00000000  00000000  00000156  2**0
                  CONTENTS, READONLY
  3 .note.gnu.avr.deviceinfo 00000040  00000000  00000000  00000188  2**2
                  CONTENTS, READONLY
  4 .debug_aranges 00000050  00000000  00000000  000001c8  2**0
                  CONTENTS, READONLY, DEBUGGING
  5 .debug_info   000009d5  00000000  00000000  00000218  2**0
                  CONTENTS, READONLY, DEBUGGING
  6 .debug_abbrev 000008d0  00000000  00000000  00000bed  2**0
                  CONTENTS, READONLY, DEBUGGING
  7 .debug_line   00000385  00000000  00000000  000014bd  2**0
                  CONTENTS, READONLY, DEBUGGING
  8 .debug_frame  00000078  00000000  00000000  00001844  2**2
                  CONTENTS, READONLY, DEBUGGING
  9 .debug_str    00000432  00000000  00000000  000018bc  2**0
                  CONTENTS, READONLY, DEBUGGING
 10 .debug_loc    000000ea  00000000  00000000  00001cee  2**0
                  CONTENTS, READONLY, DEBUGGING
 11 .debug_ranges 00000030  00000000  00000000  00001dd8  2**0
                  CONTENTS, READONLY, DEBUGGING

Disassembly of section .text:

00000000 <__vectors>:
   0:	45 c0       	rjmp	.+138    	; 0x8c <__ctors_end>
   2:	00 00       	nop
   4:	4b c0       	rjmp	.+150    	; 0x9c <__bad_interrupt>
   6:	00 00       	nop
   8:	49 c0       	rjmp	.+146    	; 0x9c <__bad_interrupt>
   a:	00 00       	nop
   c:	47 c0       	rjmp	.+142    	; 0x9c <__bad_interrupt>
   e:	00 00       	nop
  10:	45 c0       	rjmp	.+138    	; 0x9c <__bad_interrupt>
  12:	00 00       	nop
  14:	43 c0       	rjmp	.+134    	; 0x9c <__bad_interrupt>
  16:	00 00       	nop
  18:	41 c0       	rjmp	.+130    	; 0x9c <__bad_interrupt>
  1a:	00 00       	nop
  1c:	3f c0       	rjmp	.+126    	; 0x9c <__bad_interrupt>
  1e:	00 00       	nop
  20:	3d c0       	rjmp	.+122    	; 0x9c <__bad_interrupt>
  22:	00 00       	nop
  24:	3b c0       	rjmp	.+118    	; 0x9c <__bad_interrupt>
  26:	00 00       	nop
  28:	39 c0       	rjmp	.+114    	; 0x9c <__bad_interrupt>
  2a:	00 00       	nop
  2c:	37 c0       	rjmp	.+110    	; 0x9c <__bad_interrupt>
  2e:	00 00       	nop
  30:	35 c0       	rjmp	.+106    	; 0x9c <__bad_interrupt>
  32:	00 00       	nop
  34:	33 c0       	rjmp	.+102    	; 0x9c <__bad_interrupt>
  36:	00 00       	nop
  38:	31 c0       	rjmp	.+98     	; 0x9c <__bad_interrupt>
  3a:	00 00       	nop
  3c:	2f c0       	rjmp	.+94     	; 0x9c <__bad_interrupt>
  3e:	00 00       	nop
  40:	2d c0       	rjmp	.+90     	; 0x9c <__bad_interrupt>
  42:	00 00       	nop
  44:	2b c0       	rjmp	.+86     	; 0x9c <__bad_interrupt>
  46:	00 00       	nop
  48:	29 c0       	rjmp	.+82     	; 0x9c <__bad_interrupt>
  4a:	00 00       	nop
  4c:	27 c0       	rjmp	.+78     	; 0x9c <__bad_interrupt>
  4e:	00 00       	nop
  50:	25 c0       	rjmp	.+74     	; 0x9c <__bad_interrupt>
  52:	00 00       	nop
  54:	23 c0       	rjmp	.+70     	; 0x9c <__bad_interrupt>
  56:	00 00       	nop
  58:	21 c0       	rjmp	.+66     	; 0x9c <__bad_interrupt>
  5a:	00 00       	nop
  5c:	1f c0       	rjmp	.+62     	; 0x9c <__bad_interrupt>
  5e:	00 00       	nop
  60:	1d c0       	rjmp	.+58     	; 0x9c <__bad_interrupt>
  62:	00 00       	nop
  64:	1b c0       	rjmp	.+54     	; 0x9c <__bad_interrupt>
  66:	00 00       	nop
  68:	19 c0       	rjmp	.+50     	; 0x9c <__bad_interrupt>
  6a:	00 00       	nop
  6c:	17 c0       	rjmp	.+46     	; 0x9c <__bad_interrupt>
  6e:	00 00       	nop
  70:	15 c0       	rjmp	.+42     	; 0x9c <__bad_interrupt>
  72:	00 00       	nop
  74:	13 c0       	rjmp	.+38     	; 0x9c <__bad_interrupt>
  76:	00 00       	nop
  78:	11 c0       	rjmp	.+34     	; 0x9c <__bad_interrupt>
  7a:	00 00       	nop
  7c:	0f c0       	rjmp	.+30     	; 0x9c <__bad_interrupt>
  7e:	00 00       	nop
  80:	0d c0       	rjmp	.+26     	; 0x9c <__bad_interrupt>
  82:	00 00       	nop
  84:	0b c0       	rjmp	.+22     	; 0x9c <__bad_interrupt>
  86:	00 00       	nop
  88:	09 c0       	rjmp	.+18     	; 0x9c <__bad_interrupt>
	...

0000008c <__ctors_end>:
  8c:	11 24       	eor	r1, r1
  8e:	1f be       	out	0x3f, r1	; 63
  90:	cf ef       	ldi	r28, 0xFF	; 255
  92:	d0 e1       	ldi	r29, 0x10	; 16
  94:	de bf       	out	0x3e, r29	; 62
  96:	cd bf       	out	0x3d, r28	; 61
  98:	15 d0       	rcall	.+42     	; 0xc4 <main>
  9a:	31 c0       	rjmp	.+98     	; 0xfe <_exit>

0000009c <__bad_interrupt>:
  9c:	b1 cf       	rjmp	.-158    	; 0x0 <__vectors>

0000009e <GPIO_LedInit>:


// LED 포트 레지스터에 출력 방향 설정 함수
void GPIO_LedInit()
{
	LED_DDR = 0xff;
  9e:	8f ef       	ldi	r24, 0xFF	; 255
  a0:	87 bb       	out	0x17, r24	; 23
  a2:	08 95       	ret

000000a4 <GPIO_Output>:
}

// LED 포트 레지스터에 데이터를 출력하는 함수
void GPIO_Output(uint8_t data)
{
	LED_PORT = data;	// data 값을 portb 에 출력
  a4:	88 bb       	out	0x18, r24	; 24
  a6:	08 95       	ret

000000a8 <ledLeftShift>:
}

// LED를 좌측으로 이동하는 함수
void ledLeftShift(uint8_t *data)
{
  a8:	fc 01       	movw	r30, r24
	*data = (*data >> 7) | (*data << 1);
  aa:	90 81       	ld	r25, Z
  ac:	29 2f       	mov	r18, r25
  ae:	30 e0       	ldi	r19, 0x00	; 0
  b0:	22 0f       	add	r18, r18
  b2:	33 1f       	adc	r19, r19
  b4:	99 1f       	adc	r25, r25
  b6:	99 27       	eor	r25, r25
  b8:	99 1f       	adc	r25, r25
  ba:	89 2f       	mov	r24, r25
  bc:	82 2b       	or	r24, r18
  be:	80 83       	st	Z, r24
	GPIO_Output(*data);
  c0:	f1 cf       	rjmp	.-30     	; 0xa4 <GPIO_Output>
  c2:	08 95       	ret

000000c4 <main>:
#include <util/delay.h>

#include "led.h"

int main(void)
{
  c4:	cf 93       	push	r28
  c6:	df 93       	push	r29
  c8:	1f 92       	push	r1
  ca:	cd b7       	in	r28, 0x3d	; 61
  cc:	de b7       	in	r29, 0x3e	; 62
	GPIO_LedInit(); // DDRB = 0xFF;
  ce:	e7 df       	rcall	.-50     	; 0x9e <GPIO_LedInit>
	uint8_t ledData = 0x01;	// 0b00000001;
  d0:	81 e0       	ldi	r24, 0x01	; 1
  d2:	89 83       	std	Y+1, r24	; 0x01
	
	while (1)
	{
		for (int i = 0; i < 7; i++)
  d4:	00 e0       	ldi	r16, 0x00	; 0
  d6:	10 e0       	ldi	r17, 0x00	; 0
  d8:	0e c0       	rjmp	.+28     	; 0xf6 <main+0x32>
		{
			ledLeftShift(&ledData);
  da:	ce 01       	movw	r24, r28
  dc:	01 96       	adiw	r24, 0x01	; 1
  de:	e4 df       	rcall	.-56     	; 0xa8 <ledLeftShift>
	#else
		//round up by default
		__ticks_dc = (uint32_t)(ceil(fabs(__tmp)));
	#endif

	__builtin_avr_delay_cycles(__ticks_dc);
  e0:	2f ef       	ldi	r18, 0xFF	; 255
  e2:	85 ea       	ldi	r24, 0xA5	; 165
  e4:	9e e0       	ldi	r25, 0x0E	; 14
  e6:	21 50       	subi	r18, 0x01	; 1
  e8:	80 40       	sbci	r24, 0x00	; 0
  ea:	90 40       	sbci	r25, 0x00	; 0
  ec:	e1 f7       	brne	.-8      	; 0xe6 <main+0x22>
  ee:	00 c0       	rjmp	.+0      	; 0xf0 <main+0x2c>
  f0:	00 00       	nop
	GPIO_LedInit(); // DDRB = 0xFF;
	uint8_t ledData = 0x01;	// 0b00000001;
	
	while (1)
	{
		for (int i = 0; i < 7; i++)
  f2:	0f 5f       	subi	r16, 0xFF	; 255
  f4:	1f 4f       	sbci	r17, 0xFF	; 255
  f6:	07 30       	cpi	r16, 0x07	; 7
  f8:	11 05       	cpc	r17, r1
  fa:	7c f3       	brlt	.-34     	; 0xda <main+0x16>
  fc:	eb cf       	rjmp	.-42     	; 0xd4 <main+0x10>

000000fe <_exit>:
  fe:	f8 94       	cli

00000100 <__stop_program>:
 100:	ff cf       	rjmp	.-2      	; 0x100 <__stop_program>
